; Function Attrs: null_pointer_is_valid sspstrong uwtable
define internal i32 @dissect_e2ap(ptr noundef %0, ptr noundef %1, ptr noundef %2, ptr readnone captures(none) %3) #2 {
  %5 = alloca %struct._asn1_ctx_t, align 8
  %6 = getelementptr inbounds nuw i8, ptr %1, i64 8
  %7 = load ptr, ptr %6, align 8
  tail call void @col_set_str(ptr noundef %7, i32 noundef 35, ptr noundef nonnull @.str.51)
  %8 = load ptr, ptr %6, align 8
  tail call void @col_clear(ptr noundef %8, i32 noundef 25)
  %9 = getelementptr inbounds nuw i8, ptr %1, i64 408
  %10 = load ptr, ptr %9, align 8
  %11 = tail call noalias dereferenceable_or_null(4) ptr @wmem_alloc(ptr noundef %10, i64 noundef 4) #10
  store i32 0, ptr %11, align 4
  %12 = load ptr, ptr %9, align 8
  %13 = load i32, ptr @proto_e2ap, align 4
  %14 = tail call ptr @p_get_proto_data(ptr noundef %12, ptr noundef %1, i32 noundef %13, i32 noundef 0)
  %.not.i = icmp eq ptr %14, null
  br i1 %.not.i, label %15, label %e2ap_get_private_data.exit

15:                                               ; preds = %4
  %16 = load ptr, ptr %9, align 8
  %17 = tail call noalias dereferenceable_or_null(48) ptr @wmem_alloc0(ptr noundef %16, i64 noundef 48) #10
  %18 = load ptr, ptr %9, align 8
  %19 = load i32, ptr @proto_e2ap, align 4
  tail call void @p_add_proto_data(ptr noundef %18, ptr noundef %1, i32 noundef %19, i32 noundef 0, ptr noundef %17)
  br label %e2ap_get_private_data.exit

e2ap_get_private_data.exit:                       ; preds = %4, %15
  %.0.i = phi ptr [ %14, %4 ], [ %17, %15 ]
  %20 = getelementptr inbounds nuw i8, ptr %.0.i, i64 40
  store ptr %11, ptr %20, align 8
  %21 = load i32, ptr @proto_e2ap, align 4
  %22 = tail call ptr @proto_tree_add_item(ptr noundef %2, i32 noundef %21, ptr noundef %0, i32 noundef 0, i32 noundef -1, i32 noundef 0)
  %23 = load i32, ptr @ett_e2ap, align 4
  %24 = tail call ptr @proto_item_add_subtree(ptr noundef %22, i32 noundef %23)
  call void @llvm.lifetime.start.p0(i64 208, ptr nonnull %5) #12
  call void @asn1_ctx_init(ptr noundef nonnull %5, i32 noundef 1, i1 noundef zeroext true, ptr noundef %1)
  %25 = load i32, ptr @hf_e2ap_E2AP_PDU_PDU, align 4
  %26 = load i32, ptr @ett_e2ap_E2AP_PDU, align 4
  %27 = call i32 @dissect_per_choice(ptr noundef %0, i32 noundef 0, ptr noundef nonnull %5, ptr noundef %24, i32 noundef %25, i32 noundef %26, ptr noundef nonnull @E2AP_PDU_choice, ptr noundef null)
  call void @llvm.lifetime.end.p0(i64 208, ptr nonnull %5) #12
  %28 = load i32, ptr @e2ap_tap, align 4
  call void @tap_queue_packet(i32 noundef %28, ptr noundef %1, ptr noundef %11)
  %29 = call i32 @tvb_captured_length(ptr noundef %0)
  ret i32 %29
}